target datalayout = "e-m:e-p270:32:32-p271:32:32-p272:64:64-i64:64-i128:128-f80:128-n8:16:32:64-S128"
target triple = "x86_64-pc-linux-gnu"

%struct.stbte_tilemap = type { [200 x [200 x [8 x i16]]], [200 x [200 x [1 x float]]], i32, i32, i32, i32, i32, i32, i32, i32, i32, i32, i32, i32, [100 x ptr], i32, i32, ptr, i32, i32, i32, i8, i8, i8, i8, i32, i32, i32, [8 x %struct.stbte__layer], i32, i32, i32, i32, i32, i32, i32, i32, i16, [4096 x i8], ptr }
%struct.stbte__layer = type { ptr, i32, i32 }

; Function Attrs: nounwind uwtable
define i32 @stbte__should_copy_properties(ptr noundef %0) #0 {
  %2 = alloca i32, align 4
  %3 = alloca ptr, align 8
  %4 = alloca i32, align 4
  %5 = alloca i32, align 4
  store ptr %0, ptr %3, align 8, !tbaa !25
  call void @llvm.lifetime.start.p0(i64 4, ptr %4) #8
  %6 = load ptr, ptr %3, align 8, !tbaa !25
  %7 = getelementptr inbounds nuw %struct.stbte_tilemap, ptr %6, i32 0, i32 32
  %8 = load i32, ptr %7, align 4, !tbaa !48
  %9 = icmp eq i32 %8, 1
  br i1 %9, label %10, label %11

10:                                               ; preds = %1
  store i32 1, ptr %2, align 4
  store i32 1, ptr %5, align 4
  br label %59

11:                                               ; preds = %1
  %12 = load ptr, ptr %3, align 8, !tbaa !25
  %13 = getelementptr inbounds nuw %struct.stbte_tilemap, ptr %12, i32 0, i32 32
  %14 = load i32, ptr %13, align 4, !tbaa !48
  %15 = icmp eq i32 %14, 2
  br i1 %15, label %16, label %17

16:                                               ; preds = %11
  store i32 0, ptr %2, align 4
  store i32 1, ptr %5, align 4
  br label %59

17:                                               ; preds = %11
  %18 = load ptr, ptr %3, align 8, !tbaa !25
  %19 = getelementptr inbounds nuw %struct.stbte_tilemap, ptr %18, i32 0, i32 33
  %20 = load i32, ptr %19, align 8, !tbaa !42
  %21 = icmp sge i32 %20, 0
  br i1 %21, label %27, label %22

22:                                               ; preds = %17
  %23 = load ptr, ptr %3, align 8, !tbaa !25
  %24 = getelementptr inbounds nuw %struct.stbte_tilemap, ptr %23, i32 0, i32 13
  %25 = load i32, ptr %24, align 4, !tbaa !147
  %26 = icmp sge i32 %25, 0
  br i1 %26, label %27, label %28

27:                                               ; preds = %22, %17
  store i32 0, ptr %2, align 4
  store i32 1, ptr %5, align 4
  br label %59

28:                                               ; preds = %22
  store i32 0, ptr %4, align 4, !tbaa !13
  br label %29

29:                                               ; preds = %55, %28
  %30 = load i32, ptr %4, align 4, !tbaa !13
  %31 = load ptr, ptr %3, align 8, !tbaa !25
  %32 = getelementptr inbounds nuw %struct.stbte_tilemap, ptr %31, i32 0, i32 4
  %33 = load i32, ptr %32, align 8, !tbaa !30
  %34 = icmp slt i32 %30, %33
  br i1 %34, label %35, label %58

35:                                               ; preds = %29
  %36 = load ptr, ptr %3, align 8, !tbaa !25
  %37 = getelementptr inbounds nuw %struct.stbte_tilemap, ptr %36, i32 0, i32 28
  %38 = load i32, ptr %4, align 4, !tbaa !13
  %39 = sext i32 %38 to i64
  %40 = getelementptr inbounds [8 x %struct.stbte__layer], ptr %37, i64 0, i64 %39
  %41 = getelementptr inbounds nuw %struct.stbte__layer, ptr %40, i32 0, i32 2
  %42 = load i32, ptr %41, align 4, !tbaa !52
  %43 = icmp ne i32 %42, 0
  br i1 %43, label %53, label %44

44:                                               ; preds = %35
  %45 = load ptr, ptr %3, align 8, !tbaa !25
  %46 = getelementptr inbounds nuw %struct.stbte_tilemap, ptr %45, i32 0, i32 28
  %47 = load i32, ptr %4, align 4, !tbaa !13
  %48 = sext i32 %47 to i64
  %49 = getelementptr inbounds [8 x %struct.stbte__layer], ptr %46, i64 0, i64 %48
  %50 = getelementptr inbounds nuw %struct.stbte__layer, ptr %49, i32 0, i32 1
  %51 = load i32, ptr %50, align 8, !tbaa !54
  %52 = icmp ne i32 %51, 0
  br i1 %52, label %53, label %54

53:                                               ; preds = %44, %35
  store i32 0, ptr %2, align 4
  store i32 1, ptr %5, align 4
  br label %59

54:                                               ; preds = %44
  br label %55

55:                                               ; preds = %54
  %56 = load i32, ptr %4, align 4, !tbaa !13
  %57 = add nsw i32 %56, 1
  store i32 %57, ptr %4, align 4, !tbaa !13
  br label %29, !llvm.loop !159

58:                                               ; preds = %29
  store i32 1, ptr %2, align 4
  store i32 1, ptr %5, align 4
  br label %59

59:                                               ; preds = %58, %53, %27, %16, %10
  call void @llvm.lifetime.end.p0(i64 4, ptr %4) #8
  %60 = load i32, ptr %2, align 4
  ret i32 %60
}