; Function Attrs: nofree norecurse nosync nounwind memory(argmem: read) uwtable
define range(i32 0, 2) i32 @stbte__should_copy_properties(ptr noundef readonly captures(none) %0) local_unnamed_addr #12 {
  %2 = getelementptr inbounds nuw i8, ptr %0, i64 801036
  %3 = load i32, ptr %2, align 4, !tbaa !144
  switch i32 %3, label %5 [
    i32 1, label %.loopexit
    i32 2, label %4
  ]

4:                                                ; preds = %1
  br label %.loopexit

5:                                                ; preds = %1
  %6 = getelementptr inbounds nuw i8, ptr %0, i64 801040
  %7 = load i32, ptr %6, align 8, !tbaa !40
  %8 = icmp sgt i32 %7, -1
  br i1 %8, label %.loopexit, label %9

9:                                                ; preds = %5
  %10 = getelementptr inbounds nuw i8, ptr %0, i64 800044
  %11 = load i32, ptr %10, align 4, !tbaa !130
  %12 = icmp sgt i32 %11, -1
  br i1 %12, label %.loopexit, label %.preheader

.preheader:                                       ; preds = %9
  %13 = getelementptr inbounds nuw i8, ptr %0, i64 800896
  %14 = getelementptr inbounds nuw i8, ptr %0, i64 800008
  %15 = load i32, ptr %14, align 8, !tbaa !28
  %16 = icmp sgt i32 %15, 0
  br i1 %16, label %.lr.ph.preheader, label %.loopexit

.lr.ph.preheader:                                 ; preds = %.preheader
  %wide.trip.count = zext nneg i32 %15 to i64
  br label %.lr.ph

17:                                               ; preds = %21
  %indvars.iv.next = add nuw nsw i64 %indvars.iv, 1
  %exitcond.not = icmp eq i64 %indvars.iv.next, %wide.trip.count
  br i1 %exitcond.not, label %.loopexit, label %.lr.ph, !llvm.loop !145

.lr.ph:                                           ; preds = %.lr.ph.preheader, %17
  %indvars.iv = phi i64 [ 0, %.lr.ph.preheader ], [ %indvars.iv.next, %17 ]
  %18 = getelementptr inbounds nuw [8 x %struct.stbte__layer], ptr %13, i64 0, i64 %indvars.iv
  %19 = getelementptr inbounds nuw i8, ptr %18, i64 12
  %20 = load i32, ptr %19, align 4, !tbaa !131
  %.not = icmp eq i32 %20, 0
  br i1 %.not, label %21, label %.loopexit

21:                                               ; preds = %.lr.ph
  %22 = getelementptr inbounds nuw i8, ptr %18, i64 8
  %23 = load i32, ptr %22, align 8, !tbaa !132
  %.not13 = icmp eq i32 %23, 0
  br i1 %.not13, label %17, label %.loopexit

.loopexit:                                        ; preds = %21, %.lr.ph, %17, %.preheader, %5, %9, %1, %4
  %.011 = phi i32 [ 0, %4 ], [ %3, %1 ], [ 0, %9 ], [ 0, %5 ], [ 1, %.preheader ], [ 0, %21 ], [ 0, %.lr.ph ], [ 1, %17 ]
  ret i32 %.011
}